target datalayout = "e-m:e-p270:32:32-p271:32:32-p272:64:64-i64:64-i128:128-f80:128-n8:16:32:64-S128"
target triple = "x86_64-pc-linux-gnu"

%"struct.ZXing::SymbologyIdentifier" = type { i8, i8, i8, i8 }
%"class.ZXing::ByteArray" = type { %"class.std::vector" }
%"class.std::vector" = type { %"struct.std::_Vector_base" }
%"struct.std::_Vector_base" = type { %"struct.std::_Vector_base<unsigned char, std::allocator<unsigned char>>::_Vector_impl" }
%"struct.std::_Vector_base<unsigned char, std::allocator<unsigned char>>::_Vector_impl" = type { %"struct.std::_Vector_base<unsigned char, std::allocator<unsigned char>>::_Vector_impl_data" }
%"struct.std::_Vector_base<unsigned char, std::allocator<unsigned char>>::_Vector_impl_data" = type { ptr, ptr, ptr }
%"class.ZXing::Result" = type <{ %"class.ZXing::Content", %"class.ZXing::Error", %"class.ZXing::Quadrilateral", %"class.ZXing::ReaderOptions", [4 x i8], %"struct.ZXing::StructuredAppendInfo", i32, [4 x i8], [4 x i8], i32, i8, i8, i8, [5 x i8] }>
%"class.ZXing::Content" = type <{ %"class.ZXing::ByteArray", %"class.std::vector.3", %"struct.ZXing::SymbologyIdentifier", i8, i8, [2 x i8] }>
%"class.std::vector.3" = type { %"struct.std::_Vector_base.4" }
%"struct.std::_Vector_base.4" = type { %"struct.std::_Vector_base<ZXing::Content::Encoding, std::allocator<ZXing::Content::Encoding>>::_Vector_impl" }
%"struct.std::_Vector_base<ZXing::Content::Encoding, std::allocator<ZXing::Content::Encoding>>::_Vector_impl" = type { %"struct.std::_Vector_base<ZXing::Content::Encoding, std::allocator<ZXing::Content::Encoding>>::_Vector_impl_data" }
%"struct.std::_Vector_base<ZXing::Content::Encoding, std::allocator<ZXing::Content::Encoding>>::_Vector_impl_data" = type { ptr, ptr, ptr }
%"class.ZXing::Error" = type <{ %"class.std::__cxx11::basic_string", ptr, i16, i8, [5 x i8] }>
%"class.std::__cxx11::basic_string" = type { %"struct.std::__cxx11::basic_string<char>::_Alloc_hider", i64, %union.anon }
%"struct.std::__cxx11::basic_string<char>::_Alloc_hider" = type { ptr }
%union.anon = type { i64, [8 x i8] }
%"class.ZXing::Quadrilateral" = type { %"struct.std::array" }
%"struct.std::array" = type { [4 x %"struct.ZXing::PointT"] }
%"struct.ZXing::PointT" = type { i32, i32 }
%"class.ZXing::ReaderOptions" = type { i32, i8, i8, i16, %"class.ZXing::Flags" }
%"class.ZXing::Flags" = type { i32 }
%"struct.ZXing::StructuredAppendInfo" = type { i32, i32, %"class.std::__cxx11::basic_string" }

; Function Attrs: mustprogress optsize uwtable
define void @_ZNK5ZXing6Result4textB5cxx11ENS_8TextModeE(ptr dead_on_unwind noalias writable sret(%"class.std::__cxx11::basic_string") align 8 %0, ptr noundef nonnull align 8 dereferenceable(211) %1, i8 noundef zeroext %2) #0 align 2 {
  %4 = alloca ptr, align 8
  %5 = alloca ptr, align 8
  %6 = alloca i8, align 1
  store ptr %0, ptr %4, align 8
  store ptr %1, ptr %5, align 8, !tbaa !3
  store i8 %2, ptr %6, align 1, !tbaa !85
  %7 = load ptr, ptr %5, align 8
  %8 = getelementptr inbounds nuw %"class.ZXing::Result", ptr %7, i32 0, i32 0
  %9 = load i8, ptr %6, align 1, !tbaa !85
  call void @_ZNK5ZXing7Content4textB5cxx11ENS_8TextModeE(ptr dead_on_unwind writable sret(%"class.std::__cxx11::basic_string") align 8 %0, ptr noundef nonnull align 8 dereferenceable(54) %8, i8 noundef zeroext %9) #20
  ret void
}

; Function Attrs: mustprogress nounwind optsize uwtable
define linkonce_odr noundef zeroext i8 @_ZNK5ZXing13ReaderOptions8textModeEv(ptr noundef nonnull align 4 dereferenceable(12) %0) #5 comdat align 2 {
  %2 = alloca ptr, align 8
  store ptr %0, ptr %2, align 8, !tbaa !60
  %3 = load ptr, ptr %2, align 8
  %4 = load i32, ptr %3, align 4
  %5 = lshr i32 %4, 18
  %6 = and i32 %5, 7
  %7 = trunc i32 %6 to i8
  ret i8 %7
}

; Function Attrs: mustprogress optsize uwtable
define void @_ZNK5ZXing6Result4textB5cxx11Ev(ptr dead_on_unwind noalias writable sret(%"class.std::__cxx11::basic_string") align 8 %0, ptr noundef nonnull align 8 dereferenceable(211) %1) #0 align 2 {
  %3 = alloca ptr, align 8
  %4 = alloca ptr, align 8
  store ptr %0, ptr %3, align 8
  store ptr %1, ptr %4, align 8, !tbaa !3
  %5 = load ptr, ptr %4, align 8
  %6 = getelementptr inbounds nuw %"class.ZXing::Result", ptr %5, i32 0, i32 3
  %7 = call noundef zeroext i8 @_ZNK5ZXing13ReaderOptions8textModeEv(ptr noundef nonnull align 4 dereferenceable(12) %6) #21
  call void @_ZNK5ZXing6Result4textB5cxx11ENS_8TextModeE(ptr dead_on_unwind writable sret(%"class.std::__cxx11::basic_string") align 8 %0, ptr noundef nonnull align 8 dereferenceable(211) %5, i8 noundef zeroext %7) #20
  ret void
}