; Function Attrs: mustprogress optsize uwtable
define void @_ZNK5ZXing6Result4textB5cxx11Ev(ptr dead_on_unwind noalias writable sret(%"class.std::__cxx11::basic_string") align 8 %0, ptr noundef nonnull align 8 dereferenceable(211) %1) local_unnamed_addr #0 align 2 {
  %3 = getelementptr inbounds nuw i8, ptr %1, i64 136
  %4 = load i32, ptr %3, align 8
  %5 = lshr i32 %4, 18
  %6 = trunc i32 %5 to i8
  %7 = and i8 %6, 7
  tail call void @_ZNK5ZXing7Content4textB5cxx11ENS_8TextModeE(ptr dead_on_unwind writable sret(%"class.std::__cxx11::basic_string") align 8 %0, ptr noundef nonnull align 8 dereferenceable(211) %1, i8 noundef zeroext %7) #27
  ret void
}